; Function Attrs: mustprogress nounwind uwtable
define dso_local { i64, i8 } @_ZN4llvm8DWARFDie11getTypeSizeEm(ptr noundef nonnull readonly align 8 captures(none) dereferenceable(16) %0, i64 noundef %1) local_unnamed_addr #0 align 2 {
  %3 = alloca %"class.llvm::SmallPtrSet", align 8
  %4 = getelementptr inbounds nuw i8, ptr %3, i64 32
  store ptr %4, ptr %3, align 8
  %5 = getelementptr inbounds nuw i8, ptr %3, i64 8
  store ptr %4, ptr %5, align 8
  %6 = getelementptr inbounds nuw i8, ptr %3, i64 16
  store i32 4, ptr %6, align 8
  %7 = getelementptr inbounds nuw i8, ptr %3, i64 20
  store i32 0, ptr %7, align 4
  %8 = getelementptr inbounds nuw i8, ptr %3, i64 24
  store i32 0, ptr %8, align 8
  %.sroa.0.0.copyload = load ptr, ptr %0, align 8
  %.sroa.2.0..sroa_idx = getelementptr inbounds nuw i8, ptr %0, i64 8
  %.sroa.2.0.copyload = load ptr, ptr %.sroa.2.0..sroa_idx, align 8
  %9 = call fastcc { i64, i8 } @_ZL15getTypeSizeImplN4llvm8DWARFDieEmRNS_15SmallPtrSetImplIPKNS_19DWARFDebugInfoEntryEEE(ptr %.sroa.0.0.copyload, ptr %.sroa.2.0.copyload, i64 noundef %1, ptr noundef nonnull align 8 dereferenceable(28) %3)
  %10 = load ptr, ptr %5, align 8
  %11 = load ptr, ptr %3, align 8
  %12 = icmp eq ptr %10, %11
  br i1 %12, label %_ZN4llvm11SmallPtrSetIPKNS_19DWARFDebugInfoEntryELj4EED2Ev.exit, label %13

13:                                               ; preds = %2
  call void @free(ptr noundef %10) #19
  br label %_ZN4llvm11SmallPtrSetIPKNS_19DWARFDebugInfoEntryELj4EED2Ev.exit

_ZN4llvm11SmallPtrSetIPKNS_19DWARFDebugInfoEntryELj4EED2Ev.exit: ; preds = %2, %13
  ret { i64, i8 } %9
}